; Function Attrs: mustprogress uwtable
define dso_local void @_ZN4Luau8Frontend5parseERKNSt7__cxx1112basic_stringIcSt11char_traitsIcESaIcEEE(ptr noundef nonnull align 8 dereferenceable(1784) %0, ptr noundef nonnull align 8 dereferenceable(32) %1) local_unnamed_addr #5 align 2 personality ptr @__gxx_personality_v0 {
  %3 = alloca %"class.std::optional.277", align 8
  %4 = alloca %"class.std::vector.160", align 8
  %5 = alloca %"class.std::function.287", align 8
  call void @llvm.lifetime.start.p0(i64 104, ptr nonnull %3) #31
  call void @_ZN4Luau8Frontend14getCheckResultERKNSt7__cxx1112basic_stringIcSt11char_traitsIcESaIcEEEbb(ptr dead_on_unwind nonnull writable sret(%"class.std::optional.277") align 8 %3, ptr noundef nonnull align 8 dereferenceable(1784) %0, ptr noundef nonnull align 8 dereferenceable(32) %1, i1 noundef zeroext false, i1 noundef zeroext false)
  %6 = getelementptr inbounds nuw i8, ptr %3, i64 96
  %7 = load i8, ptr %6, align 8, !tbaa !335, !range !30, !noundef !31
  %8 = trunc nuw i8 %7 to i1
  br i1 %8, label %_ZNSt14_Optional_baseIN4Luau11CheckResultELb0ELb0EED2Ev.exit.thread, label %9

_ZNSt14_Optional_baseIN4Luau11CheckResultELb0ELb0EED2Ev.exit.thread: ; preds = %2
  store i8 0, ptr %6, align 8, !tbaa !335
  call void @_ZN4Luau11CheckResultD2Ev(ptr noundef nonnull align 8 dereferenceable(104) %3) #31
  call void @llvm.lifetime.end.p0(i64 104, ptr nonnull %3) #31
  br label %38

9:                                                ; preds = %2
  call void @llvm.lifetime.end.p0(i64 104, ptr nonnull %3) #31
  call void @llvm.lifetime.start.p0(i64 24, ptr nonnull %4) #31
  call void @llvm.memset.p0.i64(ptr noundef nonnull align 8 dereferenceable(24) %4, i8 0, i64 24, i1 false)
  call void @llvm.memset.p0.i64(ptr noundef nonnull align 8 dereferenceable(32) %5, i8 0, i64 32, i1 false)
  %10 = invoke noundef zeroext i1 @_ZN4Luau8Frontend10parseGraphERSt6vectorINSt7__cxx1112basic_stringIcSt11char_traitsIcESaIcEEESaIS7_EERKS7_bSt8functionIFbSC_EE(ptr noundef nonnull align 8 dereferenceable(1784) %0, ptr noundef nonnull align 8 dereferenceable(24) %4, ptr noundef nonnull align 8 dereferenceable(32) %1, i1 noundef zeroext false, ptr noundef nonnull %5)
          to label %11 unwind label %39

11:                                               ; preds = %9
  %12 = getelementptr inbounds nuw i8, ptr %5, i64 16
  %13 = load ptr, ptr %12, align 8, !tbaa !309
  %.not.i = icmp eq ptr %13, null
  br i1 %.not.i, label %_ZNSt14_Function_baseD2Ev.exit, label %14

14:                                               ; preds = %11
  %15 = invoke noundef zeroext i1 %13(ptr noundef nonnull align 8 dereferenceable(32) %5, ptr noundef nonnull align 8 dereferenceable(32) %5, i32 noundef 3)
          to label %_ZNSt14_Function_baseD2Ev.exit unwind label %16

16:                                               ; preds = %14
  %17 = landingpad { ptr, i32 }
          catch ptr null
  %18 = extractvalue { ptr, i32 } %17, 0
  call void @__clang_call_terminate(ptr %18) #29
  unreachable

_ZNSt14_Function_baseD2Ev.exit:                   ; preds = %11, %14
  %19 = load ptr, ptr %4, align 8, !tbaa !127
  %20 = getelementptr inbounds nuw i8, ptr %4, i64 8
  %21 = load ptr, ptr %20, align 8, !tbaa !130
  %.not4.i.i.i.i = icmp eq ptr %19, %21
  br i1 %.not4.i.i.i.i, label %_ZSt8_DestroyIPNSt7__cxx1112basic_stringIcSt11char_traitsIcESaIcEEES5_EvT_S7_RSaIT0_E.exit.i, label %.lr.ph.i.i.i.i

.lr.ph.i.i.i.i:                                   ; preds = %_ZNSt14_Function_baseD2Ev.exit, %_ZSt8_DestroyINSt7__cxx1112basic_stringIcSt11char_traitsIcESaIcEEEEvPT_.exit.i.i.i.i
  %.05.i.i.i.i = phi ptr [ %30, %_ZSt8_DestroyINSt7__cxx1112basic_stringIcSt11char_traitsIcESaIcEEEEvPT_.exit.i.i.i.i ], [ %19, %_ZNSt14_Function_baseD2Ev.exit ]
  %22 = load ptr, ptr %.05.i.i.i.i, align 8, !tbaa !131
  %23 = getelementptr inbounds nuw i8, ptr %.05.i.i.i.i, i64 16
  %24 = icmp eq ptr %22, %23
  br i1 %24, label %_ZNKSt7__cxx1112basic_stringIcSt11char_traitsIcESaIcEE11_M_is_localEv.exit.thread.i.i.i.i.i.i.i, label %_ZNKSt7__cxx1112basic_stringIcSt11char_traitsIcESaIcEE11_M_is_localEv.exit.i.i.i.i.i.i.i

_ZNKSt7__cxx1112basic_stringIcSt11char_traitsIcESaIcEE11_M_is_localEv.exit.thread.i.i.i.i.i.i.i: ; preds = %.lr.ph.i.i.i.i
  %25 = getelementptr inbounds nuw i8, ptr %.05.i.i.i.i, i64 8
  %26 = load i64, ptr %25, align 8, !tbaa !132
  %27 = icmp ult i64 %26, 16
  call void @llvm.assume(i1 %27)
  br label %_ZSt8_DestroyINSt7__cxx1112basic_stringIcSt11char_traitsIcESaIcEEEEvPT_.exit.i.i.i.i

_ZNKSt7__cxx1112basic_stringIcSt11char_traitsIcESaIcEE11_M_is_localEv.exit.i.i.i.i.i.i.i: ; preds = %.lr.ph.i.i.i.i
  %28 = load i64, ptr %23, align 8, !tbaa !121
  %29 = add i64 %28, 1
  call void @_ZdlPvm(ptr noundef %22, i64 noundef %29) #30
  br label %_ZSt8_DestroyINSt7__cxx1112basic_stringIcSt11char_traitsIcESaIcEEEEvPT_.exit.i.i.i.i

_ZSt8_DestroyINSt7__cxx1112basic_stringIcSt11char_traitsIcESaIcEEEEvPT_.exit.i.i.i.i: ; preds = %_ZNKSt7__cxx1112basic_stringIcSt11char_traitsIcESaIcEE11_M_is_localEv.exit.i.i.i.i.i.i.i, %_ZNKSt7__cxx1112basic_stringIcSt11char_traitsIcESaIcEE11_M_is_localEv.exit.thread.i.i.i.i.i.i.i
  %30 = getelementptr inbounds nuw i8, ptr %.05.i.i.i.i, i64 32
  %.not.i.i.i.i = icmp eq ptr %30, %21
  br i1 %.not.i.i.i.i, label %_ZSt8_DestroyIPNSt7__cxx1112basic_stringIcSt11char_traitsIcESaIcEEES5_EvT_S7_RSaIT0_E.exitthread-pre-split.i, label %.lr.ph.i.i.i.i, !llvm.loop !133

_ZSt8_DestroyIPNSt7__cxx1112basic_stringIcSt11char_traitsIcESaIcEEES5_EvT_S7_RSaIT0_E.exitthread-pre-split.i: ; preds = %_ZSt8_DestroyINSt7__cxx1112basic_stringIcSt11char_traitsIcESaIcEEEEvPT_.exit.i.i.i.i
  %.pr.i = load ptr, ptr %4, align 8, !tbaa !127
  br label %_ZSt8_DestroyIPNSt7__cxx1112basic_stringIcSt11char_traitsIcESaIcEEES5_EvT_S7_RSaIT0_E.exit.i

_ZSt8_DestroyIPNSt7__cxx1112basic_stringIcSt11char_traitsIcESaIcEEES5_EvT_S7_RSaIT0_E.exit.i: ; preds = %_ZSt8_DestroyIPNSt7__cxx1112basic_stringIcSt11char_traitsIcESaIcEEES5_EvT_S7_RSaIT0_E.exitthread-pre-split.i, %_ZNSt14_Function_baseD2Ev.exit
  %31 = phi ptr [ %.pr.i, %_ZSt8_DestroyIPNSt7__cxx1112basic_stringIcSt11char_traitsIcESaIcEEES5_EvT_S7_RSaIT0_E.exitthread-pre-split.i ], [ %19, %_ZNSt14_Function_baseD2Ev.exit ]
  %.not.i.i.i = icmp eq ptr %31, null
  br i1 %.not.i.i.i, label %_ZNSt6vectorINSt7__cxx1112basic_stringIcSt11char_traitsIcESaIcEEESaIS5_EED2Ev.exit, label %32

32:                                               ; preds = %_ZSt8_DestroyIPNSt7__cxx1112basic_stringIcSt11char_traitsIcESaIcEEES5_EvT_S7_RSaIT0_E.exit.i
  %33 = getelementptr inbounds nuw i8, ptr %4, i64 16
  %34 = load ptr, ptr %33, align 8, !tbaa !134
  %35 = ptrtoint ptr %34 to i64
  %36 = ptrtoint ptr %31 to i64
  %37 = sub i64 %35, %36
  call void @_ZdlPvm(ptr noundef nonnull %31, i64 noundef %37) #30
  br label %_ZNSt6vectorINSt7__cxx1112basic_stringIcSt11char_traitsIcESaIcEEESaIS5_EED2Ev.exit

_ZNSt6vectorINSt7__cxx1112basic_stringIcSt11char_traitsIcESaIcEEESaIS5_EED2Ev.exit: ; preds = %_ZSt8_DestroyIPNSt7__cxx1112basic_stringIcSt11char_traitsIcESaIcEEES5_EvT_S7_RSaIT0_E.exit.i, %32
  call void @llvm.lifetime.end.p0(i64 24, ptr nonnull %4) #31
  br label %38

38:                                               ; preds = %_ZNSt14_Optional_baseIN4Luau11CheckResultELb0ELb0EED2Ev.exit.thread, %_ZNSt6vectorINSt7__cxx1112basic_stringIcSt11char_traitsIcESaIcEEESaIS5_EED2Ev.exit
  ret void

39:                                               ; preds = %9
  %40 = landingpad { ptr, i32 }
          cleanup
  %41 = getelementptr inbounds nuw i8, ptr %5, i64 16
  %42 = load ptr, ptr %41, align 8, !tbaa !309
  %.not.i4 = icmp eq ptr %42, null
  br i1 %.not.i4, label %_ZNSt14_Function_baseD2Ev.exit5, label %43

43:                                               ; preds = %39
  %44 = invoke noundef zeroext i1 %42(ptr noundef nonnull align 8 dereferenceable(32) %5, ptr noundef nonnull align 8 dereferenceable(32) %5, i32 noundef 3)
          to label %_ZNSt14_Function_baseD2Ev.exit5 unwind label %45

45:                                               ; preds = %43
  %46 = landingpad { ptr, i32 }
          catch ptr null
  %47 = extractvalue { ptr, i32 } %46, 0
  call void @__clang_call_terminate(ptr %47) #29
  unreachable

_ZNSt14_Function_baseD2Ev.exit5:                  ; preds = %39, %43
  call void @_ZNSt6vectorINSt7__cxx1112basic_stringIcSt11char_traitsIcESaIcEEESaIS5_EED2Ev(ptr noundef nonnull align 8 dereferenceable(24) %4) #31
  call void @llvm.lifetime.end.p0(i64 24, ptr nonnull %4) #31
  resume { ptr, i32 } %40
}